target datalayout = "e-m:e-p270:32:32-p271:32:32-p272:64:64-i64:64-i128:128-f80:128-n8:16:32:64-S128"
target triple = "x86_64-pc-linux-gnu"

%struct.lua_TValue = type { %union.Value, [1 x i32], i32 }
%union.Value = type { ptr }
%struct.lua_State = type { i8, i8, i8, i8, i8, i8, i8, ptr, ptr, ptr, ptr, ptr, ptr, ptr, ptr, i32, i32, i16, i16, i32, ptr, ptr, ptr, ptr, ptr }
%struct.GCheader = type { i8, i8, i8 }
%struct.LuaTable = type { i8, i8, i8, i8, i8, i8, i8, i8, i32, %union.anon.2, ptr, ptr, ptr, ptr }
%union.anon.2 = type { i32 }

@luaO_nilobject_ = external hidden global %struct.lua_TValue, align 8

; Function Attrs: alwaysinline mustprogress uwtable
define internal noundef ptr @_ZL10index2addrP9lua_Statei(ptr noundef %0, i32 noundef %1) #2 {
  %3 = alloca ptr, align 8
  %4 = alloca ptr, align 8
  %5 = alloca i32, align 4
  %6 = alloca ptr, align 8
  %7 = alloca i32, align 4
  store ptr %0, ptr %4, align 8, !tbaa !4
  store i32 %1, ptr %5, align 4, !tbaa !9
  %8 = load i32, ptr %5, align 4, !tbaa !9
  %9 = icmp sgt i32 %8, 0
  br i1 %9, label %10, label %27

10:                                               ; preds = %2
  call void @llvm.lifetime.start.p0(i64 8, ptr %6) #11
  %11 = load ptr, ptr %4, align 8, !tbaa !4
  %12 = getelementptr inbounds nuw %struct.lua_State, ptr %11, i32 0, i32 8
  %13 = load ptr, ptr %12, align 8, !tbaa !13
  %14 = load i32, ptr %5, align 4, !tbaa !9
  %15 = sub nsw i32 %14, 1
  %16 = sext i32 %15 to i64
  %17 = getelementptr inbounds %struct.lua_TValue, ptr %13, i64 %16
  store ptr %17, ptr %6, align 8, !tbaa !11
  %18 = load ptr, ptr %6, align 8, !tbaa !11
  %19 = load ptr, ptr %4, align 8, !tbaa !4
  %20 = getelementptr inbounds nuw %struct.lua_State, ptr %19, i32 0, i32 7
  %21 = load ptr, ptr %20, align 8, !tbaa !23
  %22 = icmp uge ptr %18, %21
  br i1 %22, label %23, label %24

23:                                               ; preds = %10
  store ptr @luaO_nilobject_, ptr %3, align 8
  store i32 1, ptr %7, align 4
  br label %26

24:                                               ; preds = %10
  %25 = load ptr, ptr %6, align 8, !tbaa !11
  store ptr %25, ptr %3, align 8
  store i32 1, ptr %7, align 4
  br label %26

26:                                               ; preds = %24, %23
  call void @llvm.lifetime.end.p0(i64 8, ptr %6) #11
  br label %41

27:                                               ; preds = %2
  %28 = load i32, ptr %5, align 4, !tbaa !9
  %29 = icmp sgt i32 %28, -10000
  br i1 %29, label %30, label %37

30:                                               ; preds = %27
  %31 = load ptr, ptr %4, align 8, !tbaa !4
  %32 = getelementptr inbounds nuw %struct.lua_State, ptr %31, i32 0, i32 7
  %33 = load ptr, ptr %32, align 8, !tbaa !23
  %34 = load i32, ptr %5, align 4, !tbaa !9
  %35 = sext i32 %34 to i64
  %36 = getelementptr inbounds %struct.lua_TValue, ptr %33, i64 %35
  store ptr %36, ptr %3, align 8
  br label %41

37:                                               ; preds = %27
  %38 = load ptr, ptr %4, align 8, !tbaa !4
  %39 = load i32, ptr %5, align 4, !tbaa !9
  %40 = call noundef ptr @_ZL11pseudo2addrP9lua_Statei(ptr noundef %38, i32 noundef %39)
  store ptr %40, ptr %3, align 8
  br label %41

41:                                               ; preds = %37, %30, %26
  %42 = load ptr, ptr %3, align 8
  ret ptr %42
}

; Function Attrs: mustprogress uwtable
define dso_local void @_Z15lua_rawsetfieldP9lua_StateiPKc(ptr noundef %0, i32 noundef %1, ptr noundef %2) #0 {
  %4 = alloca ptr, align 8
  %5 = alloca i32, align 4
  %6 = alloca ptr, align 8
  %7 = alloca ptr, align 8
  %8 = alloca ptr, align 8
  %9 = alloca ptr, align 8
  store ptr %0, ptr %4, align 8, !tbaa !4
  store i32 %1, ptr %5, align 4, !tbaa !9
  store ptr %2, ptr %6, align 8, !tbaa !62
  call void @llvm.lifetime.start.p0(i64 8, ptr %7) #11
  %10 = load ptr, ptr %4, align 8, !tbaa !4
  %11 = load i32, ptr %5, align 4, !tbaa !9
  %12 = call noundef ptr @_ZL10index2addrP9lua_Statei(ptr noundef %10, i32 noundef %11)
  store ptr %12, ptr %7, align 8, !tbaa !11
  %13 = load ptr, ptr %7, align 8, !tbaa !11
  %14 = getelementptr inbounds nuw %struct.lua_TValue, ptr %13, i32 0, i32 0
  %15 = load ptr, ptr %14, align 8, !tbaa !25
  %16 = getelementptr inbounds nuw %struct.LuaTable, ptr %15, i32 0, i32 4
  %17 = load i8, ptr %16, align 4, !tbaa !93
  %18 = icmp ne i8 %17, 0
  br i1 %18, label %19, label %21

19:                                               ; preds = %3
  %20 = load ptr, ptr %4, align 8, !tbaa !4
  call void @_Z18luaG_readonlyerrorP9lua_State(ptr noundef %20) #13
  unreachable

21:                                               ; preds = %3
  call void @llvm.lifetime.start.p0(i64 8, ptr %8) #11
  %22 = load ptr, ptr %4, align 8, !tbaa !4
  %23 = getelementptr inbounds nuw %struct.lua_State, ptr %22, i32 0, i32 7
  %24 = load ptr, ptr %23, align 8, !tbaa !23
  %25 = getelementptr inbounds %struct.lua_TValue, ptr %24, i64 -1
  store ptr %25, ptr %8, align 8, !tbaa !11
  call void @llvm.lifetime.start.p0(i64 8, ptr %9) #11
  %26 = load ptr, ptr %4, align 8, !tbaa !4
  %27 = load ptr, ptr %7, align 8, !tbaa !11
  %28 = getelementptr inbounds nuw %struct.lua_TValue, ptr %27, i32 0, i32 0
  %29 = load ptr, ptr %28, align 8, !tbaa !25
  %30 = load ptr, ptr %4, align 8, !tbaa !4
  %31 = load ptr, ptr %6, align 8, !tbaa !62
  %32 = load ptr, ptr %6, align 8, !tbaa !62
  %33 = call i64 @strlen(ptr noundef %32) #12
  %34 = call noundef ptr @_Z12luaS_newlstrP9lua_StatePKcm(ptr noundef %30, ptr noundef %31, i64 noundef %33)
  %35 = call noundef ptr @_Z11luaH_setstrP9lua_StateP8LuaTableP7TString(ptr noundef %26, ptr noundef %29, ptr noundef %34)
  store ptr %35, ptr %9, align 8, !tbaa !11
  %36 = load ptr, ptr %8, align 8, !tbaa !11
  %37 = load ptr, ptr %9, align 8, !tbaa !11
  call void @llvm.memcpy.p0.p0.i64(ptr align 8 %37, ptr align 8 %36, i64 16, i1 false), !tbaa.struct !24
  call void @llvm.lifetime.end.p0(i64 8, ptr %9) #11
  call void @llvm.lifetime.end.p0(i64 8, ptr %8) #11
  %38 = load ptr, ptr %4, align 8, !tbaa !4
  %39 = getelementptr inbounds nuw %struct.lua_State, ptr %38, i32 0, i32 7
  %40 = load ptr, ptr %39, align 8, !tbaa !23
  %41 = getelementptr inbounds %struct.lua_TValue, ptr %40, i64 -1
  %42 = getelementptr inbounds nuw %struct.lua_TValue, ptr %41, i32 0, i32 2
  %43 = load i32, ptr %42, align 4, !tbaa !49
  %44 = icmp sge i32 %43, 5
  br i1 %44, label %45, label %78

45:                                               ; preds = %21
  %46 = load ptr, ptr %7, align 8, !tbaa !11
  %47 = getelementptr inbounds nuw %struct.lua_TValue, ptr %46, i32 0, i32 0
  %48 = load ptr, ptr %47, align 8, !tbaa !25
  %49 = getelementptr inbounds %struct.LuaTable, ptr %48, i64 0
  %50 = getelementptr inbounds nuw %struct.GCheader, ptr %49, i32 0, i32 1
  %51 = load i8, ptr %50, align 1, !tbaa !25
  %52 = zext i8 %51 to i32
  %53 = and i32 %52, 4
  %54 = icmp ne i32 %53, 0
  br i1 %54, label %55, label %78

55:                                               ; preds = %45
  %56 = load ptr, ptr %4, align 8, !tbaa !4
  %57 = getelementptr inbounds nuw %struct.lua_State, ptr %56, i32 0, i32 7
  %58 = load ptr, ptr %57, align 8, !tbaa !23
  %59 = getelementptr inbounds %struct.lua_TValue, ptr %58, i64 -1
  %60 = getelementptr inbounds nuw %struct.lua_TValue, ptr %59, i32 0, i32 0
  %61 = load ptr, ptr %60, align 8, !tbaa !25
  %62 = getelementptr inbounds nuw %struct.GCheader, ptr %61, i32 0, i32 1
  %63 = load i8, ptr %62, align 1, !tbaa !25
  %64 = zext i8 %63 to i32
  %65 = and i32 %64, 3
  %66 = icmp ne i32 %65, 0
  br i1 %66, label %67, label %78

67:                                               ; preds = %55
  %68 = load ptr, ptr %4, align 8, !tbaa !4
  %69 = load ptr, ptr %7, align 8, !tbaa !11
  %70 = getelementptr inbounds nuw %struct.lua_TValue, ptr %69, i32 0, i32 0
  %71 = load ptr, ptr %70, align 8, !tbaa !25
  %72 = load ptr, ptr %4, align 8, !tbaa !4
  %73 = getelementptr inbounds nuw %struct.lua_State, ptr %72, i32 0, i32 7
  %74 = load ptr, ptr %73, align 8, !tbaa !23
  %75 = getelementptr inbounds %struct.lua_TValue, ptr %74, i64 -1
  %76 = getelementptr inbounds nuw %struct.lua_TValue, ptr %75, i32 0, i32 0
  %77 = load ptr, ptr %76, align 8, !tbaa !25
  call void @_Z17luaC_barriertableP9lua_StateP8LuaTableP8GCObject(ptr noundef %68, ptr noundef %71, ptr noundef %77)
  br label %78

78:                                               ; preds = %67, %55, %45, %21
  %79 = load ptr, ptr %4, align 8, !tbaa !4
  %80 = getelementptr inbounds nuw %struct.lua_State, ptr %79, i32 0, i32 7
  %81 = load ptr, ptr %80, align 8, !tbaa !23
  %82 = getelementptr inbounds %struct.lua_TValue, ptr %81, i32 -1
  store ptr %82, ptr %80, align 8, !tbaa !23
  call void @llvm.lifetime.end.p0(i64 8, ptr %7) #11
  ret void
}