; Function Attrs: mustprogress uwtable
define dso_local void @_Z15lua_rawsetfieldP9lua_StateiPKc(ptr noundef %0, i32 noundef %1, ptr noundef %2) local_unnamed_addr #3 {
  %4 = icmp sgt i32 %1, 0
  br i1 %4, label %5, label %13

5:                                                ; preds = %3
  %6 = getelementptr inbounds nuw i8, ptr %0, i64 16
  %7 = load ptr, ptr %6, align 8, !tbaa !4
  %8 = zext nneg i32 %1 to i64
  %9 = getelementptr %struct.lua_TValue, ptr %7, i64 %8
  %10 = getelementptr i8, ptr %9, i64 -16
  %11 = getelementptr inbounds nuw i8, ptr %0, i64 8
  %12 = load ptr, ptr %11, align 8, !tbaa !19
  %.not.i = icmp ult ptr %10, %12
  %.luaO_nilobject_.i = select i1 %.not.i, ptr %10, ptr @luaO_nilobject_
  br label %_ZL10index2addrP9lua_Statei.exit

13:                                               ; preds = %3
  %14 = icmp sgt i32 %1, -10000
  br i1 %14, label %15, label %20

15:                                               ; preds = %13
  %16 = getelementptr inbounds nuw i8, ptr %0, i64 8
  %17 = load ptr, ptr %16, align 8, !tbaa !19
  %18 = sext i32 %1 to i64
  %19 = getelementptr inbounds %struct.lua_TValue, ptr %17, i64 %18
  br label %_ZL10index2addrP9lua_Statei.exit

20:                                               ; preds = %13
  %21 = tail call fastcc noundef ptr @_ZL11pseudo2addrP9lua_Statei(ptr noundef %0, i32 noundef %1)
  br label %_ZL10index2addrP9lua_Statei.exit

_ZL10index2addrP9lua_Statei.exit:                 ; preds = %5, %15, %20
  %.1.i = phi ptr [ %.luaO_nilobject_.i, %5 ], [ %19, %15 ], [ %21, %20 ]
  %22 = load ptr, ptr %.1.i, align 8, !tbaa !21
  %23 = getelementptr inbounds nuw i8, ptr %22, i64 4
  %24 = load i8, ptr %23, align 4, !tbaa !76
  %.not = icmp eq i8 %24, 0
  br i1 %.not, label %26, label %25

25:                                               ; preds = %_ZL10index2addrP9lua_Statei.exit
  tail call void @_Z18luaG_readonlyerrorP9lua_State(ptr noundef %0) #21
  unreachable

26:                                               ; preds = %_ZL10index2addrP9lua_Statei.exit
  %27 = getelementptr inbounds nuw i8, ptr %0, i64 8
  %28 = load ptr, ptr %27, align 8, !tbaa !19
  %29 = getelementptr inbounds i8, ptr %28, i64 -16
  %30 = tail call i64 @strlen(ptr noundef nonnull dereferenceable(1) %2) #20
  %31 = tail call noundef ptr @_Z12luaS_newlstrP9lua_StatePKcm(ptr noundef %0, ptr noundef nonnull %2, i64 noundef %30)
  %32 = tail call noundef ptr @_Z11luaH_setstrP9lua_StateP8LuaTableP7TString(ptr noundef %0, ptr noundef nonnull %22, ptr noundef %31)
  tail call void @llvm.memcpy.p0.p0.i64(ptr noundef nonnull align 8 dereferenceable(16) %32, ptr noundef nonnull align 8 dereferenceable(16) %29, i64 16, i1 false), !tbaa.struct !20
  %33 = load ptr, ptr %27, align 8, !tbaa !19
  %34 = getelementptr inbounds i8, ptr %33, i64 -16
  %35 = getelementptr inbounds i8, ptr %33, i64 -4
  %36 = load i32, ptr %35, align 4, !tbaa !47
  %37 = icmp sgt i32 %36, 4
  br i1 %37, label %38, label %49

38:                                               ; preds = %26
  %39 = load ptr, ptr %.1.i, align 8, !tbaa !21
  %40 = getelementptr inbounds nuw i8, ptr %39, i64 1
  %41 = load i8, ptr %40, align 1, !tbaa !21
  %42 = and i8 %41, 4
  %.not18 = icmp eq i8 %42, 0
  br i1 %.not18, label %49, label %43

43:                                               ; preds = %38
  %44 = load ptr, ptr %34, align 8, !tbaa !21
  %45 = getelementptr inbounds nuw i8, ptr %44, i64 1
  %46 = load i8, ptr %45, align 1, !tbaa !21
  %47 = and i8 %46, 3
  %.not19 = icmp eq i8 %47, 0
  br i1 %.not19, label %49, label %48

48:                                               ; preds = %43
  tail call void @_Z17luaC_barriertableP9lua_StateP8LuaTableP8GCObject(ptr noundef nonnull %0, ptr noundef nonnull %39, ptr noundef nonnull %44)
  %.pre = load ptr, ptr %27, align 8, !tbaa !19
  br label %49

49:                                               ; preds = %48, %43, %38, %26
  %50 = phi ptr [ %.pre, %48 ], [ %33, %43 ], [ %33, %38 ], [ %33, %26 ]
  %51 = getelementptr inbounds i8, ptr %50, i64 -16
  store ptr %51, ptr %27, align 8, !tbaa !19
  ret void
}